; Function Attrs: mustprogress nofree norecurse nosync nounwind willreturn memory(none) uwtable
define range(i64 7, 18) i64 @l_Lean_Meta_TransparencyMode_hash(i8 noundef zeroext %0) local_unnamed_addr #0 {
  %2 = icmp ult i8 %0, 3
  br i1 %2, label %switch.lookup, label %4

switch.lookup:                                    ; preds = %1
  %3 = zext nneg i8 %0 to i64
  %switch.gep = getelementptr inbounds nuw [3 x i64], ptr @switch.table.l_Lean_Meta_TransparencyMode_hash___boxed, i64 0, i64 %3
  %switch.load = load i64, ptr %switch.gep, align 8
  br label %4

4:                                                ; preds = %1, %switch.lookup
  %.0 = phi i64 [ %switch.load, %switch.lookup ], [ 17, %1 ]
  ret i64 %.0
}